target datalayout = "e-m:e-p270:32:32-p271:32:32-p272:64:64-i64:64-i128:128-f80:128-n8:16:32:64-S128"
target triple = "x86_64-pc-linux-gnu"

%struct._tcm_permit_flags_t = type { i32 }
%"class.tbb::detail::r1::tcm_client" = type { %"class.tbb::detail::r1::pm_client", %struct._tcm_cpu_constraints_t, %struct._tcm_permit_request_t, ptr, %"class.tbb::detail::d1::mutex", ptr }
%"class.tbb::detail::r1::pm_client" = type { ptr, ptr, i32, i32 }
%struct._tcm_cpu_constraints_t = type { i32, i32, ptr, i32, i32, i32 }
%struct._tcm_permit_request_t = type { i32, i32, ptr, i32, i32, %struct._tcm_permit_flags_t, [4 x i8] }
%"class.tbb::detail::d1::mutex" = type { %"class.tbb::detail::d1::waitable_atomic" }
%"class.tbb::detail::d1::waitable_atomic" = type { %"struct.std::atomic" }
%"struct.std::atomic" = type { %"struct.std::__atomic_base" }
%"struct.std::__atomic_base" = type { i8 }
%"class.std::unique_ptr" = type { %"struct.std::__uniq_ptr_data" }
%"struct.std::__uniq_ptr_data" = type { %"class.std::__uniq_ptr_impl" }
%"class.std::__uniq_ptr_impl" = type { %"class.std::tuple" }
%"class.std::tuple" = type { %"struct.std::_Tuple_impl" }
%"struct.std::_Tuple_impl" = type { %"struct.std::_Head_base.1" }
%"struct.std::_Head_base.1" = type { ptr }
%"class.tbb::detail::r1::tcm_adaptor" = type { %"class.tbb::detail::r1::permit_manager", %"class.std::unique_ptr" }
%"class.tbb::detail::r1::permit_manager" = type { ptr, ptr }
%"struct.tbb::detail::r1::tcm_adaptor_impl" = type { %"class.tbb::detail::d1::mutex", i64 }
%"struct.tbb::detail::d1::constraints" = type { i32, i32, i32, i32 }

@_ZN3tbb6detail2r112_GLOBAL__N_118tcm_request_permitE = internal global ptr null, align 8

; Function Attrs: mustprogress nounwind sspstrong uwtable
define linkonce_odr noundef nonnull align 8 dereferenceable(8) ptr @_ZNSt10_Head_baseILm0EPN3tbb6detail2r116tcm_adaptor_implELb0EE7_M_headERKS5_(ptr noundef nonnull align 8 dereferenceable(8) %0) #5 comdat align 2 {
  %2 = alloca ptr, align 8
  store ptr %0, ptr %2, align 8, !tbaa !120
  %3 = load ptr, ptr %2, align 8, !tbaa !120
  %4 = getelementptr inbounds nuw %"struct.std::_Head_base.1", ptr %3, i32 0, i32 0
  ret ptr %4
}

; Function Attrs: mustprogress nounwind sspstrong uwtable
define linkonce_odr noundef nonnull align 8 dereferenceable(8) ptr @_ZNSt11_Tuple_implILm0EJPN3tbb6detail2r116tcm_adaptor_implENS2_21cache_aligned_deleterEEE7_M_headERKS6_(ptr noundef nonnull align 8 dereferenceable(8) %0) #5 comdat align 2 {
  %2 = alloca ptr, align 8
  store ptr %0, ptr %2, align 8, !tbaa !116
  %3 = load ptr, ptr %2, align 8, !tbaa !116
  %4 = call noundef nonnull align 8 dereferenceable(8) ptr @_ZNSt10_Head_baseILm0EPN3tbb6detail2r116tcm_adaptor_implELb0EE7_M_headERKS5_(ptr noundef nonnull align 8 dereferenceable(8) %3) #3
  ret ptr %4
}

; Function Attrs: mustprogress nounwind sspstrong uwtable
define linkonce_odr noundef nonnull align 8 dereferenceable(8) ptr @_ZSt12__get_helperILm0EPN3tbb6detail2r116tcm_adaptor_implEJNS2_21cache_aligned_deleterEEERKT0_RKSt11_Tuple_implIXT_EJS6_DpT1_EE(ptr noundef nonnull align 8 dereferenceable(8) %0) #5 comdat {
  %2 = alloca ptr, align 8
  store ptr %0, ptr %2, align 8, !tbaa !116
  %3 = load ptr, ptr %2, align 8, !tbaa !116
  %4 = call noundef nonnull align 8 dereferenceable(8) ptr @_ZNSt11_Tuple_implILm0EJPN3tbb6detail2r116tcm_adaptor_implENS2_21cache_aligned_deleterEEE7_M_headERKS6_(ptr noundef nonnull align 8 dereferenceable(8) %3) #3
  ret ptr %4
}

; Function Attrs: mustprogress nounwind sspstrong uwtable
define linkonce_odr noundef nonnull align 8 dereferenceable(8) ptr @_ZSt3getILm0EJPN3tbb6detail2r116tcm_adaptor_implENS2_21cache_aligned_deleterEEERKNSt13tuple_elementIXT_ESt5tupleIJDpT0_EEE4typeERKSA_(ptr noundef nonnull align 8 dereferenceable(8) %0) #5 comdat {
  %2 = alloca ptr, align 8
  store ptr %0, ptr %2, align 8, !tbaa !114
  %3 = load ptr, ptr %2, align 8, !tbaa !114
  %4 = call noundef nonnull align 8 dereferenceable(8) ptr @_ZSt12__get_helperILm0EPN3tbb6detail2r116tcm_adaptor_implEJNS2_21cache_aligned_deleterEEERKT0_RKSt11_Tuple_implIXT_EJS6_DpT1_EE(ptr noundef nonnull align 8 dereferenceable(8) %3) #3
  ret ptr %4
}

; Function Attrs: mustprogress nounwind sspstrong uwtable
define linkonce_odr noundef ptr @_ZNKSt15__uniq_ptr_implIN3tbb6detail2r116tcm_adaptor_implENS2_21cache_aligned_deleterEE6_M_ptrEv(ptr noundef nonnull align 8 dereferenceable(8) %0) #5 comdat align 2 {
  %2 = alloca ptr, align 8
  store ptr %0, ptr %2, align 8, !tbaa !112
  %3 = load ptr, ptr %2, align 8
  %4 = getelementptr inbounds nuw %"class.std::__uniq_ptr_impl", ptr %3, i32 0, i32 0
  %5 = call noundef nonnull align 8 dereferenceable(8) ptr @_ZSt3getILm0EJPN3tbb6detail2r116tcm_adaptor_implENS2_21cache_aligned_deleterEEERKNSt13tuple_elementIXT_ESt5tupleIJDpT0_EEE4typeERKSA_(ptr noundef nonnull align 8 dereferenceable(8) %4) #3
  %6 = load ptr, ptr %5, align 8, !tbaa !60
  ret ptr %6
}

; Function Attrs: mustprogress nounwind sspstrong uwtable
define linkonce_odr noundef ptr @_ZNKSt10unique_ptrIN3tbb6detail2r116tcm_adaptor_implENS2_21cache_aligned_deleterEE3getEv(ptr noundef nonnull align 8 dereferenceable(8) %0) #5 comdat align 2 {
  %2 = alloca ptr, align 8
  store ptr %0, ptr %2, align 8, !tbaa !54
  %3 = load ptr, ptr %2, align 8
  %4 = getelementptr inbounds nuw %"class.std::unique_ptr", ptr %3, i32 0, i32 0
  %5 = call noundef ptr @_ZNKSt15__uniq_ptr_implIN3tbb6detail2r116tcm_adaptor_implENS2_21cache_aligned_deleterEE6_M_ptrEv(ptr noundef nonnull align 8 dereferenceable(8) %4) #3
  ret ptr %5
}

; Function Attrs: mustprogress sspstrong uwtable
define linkonce_odr void @_ZN3tbb6detail2r110tcm_client4initEmRNS0_2d111constraintsE(ptr noundef nonnull align 8 dereferenceable(112) %0, i64 noundef %1, ptr noundef nonnull align 4 dereferenceable(16) %2) #4 comdat align 2 {
  %4 = alloca ptr, align 8
  %5 = alloca i64, align 8
  %6 = alloca ptr, align 8
  %7 = alloca i32, align 4
  %8 = alloca %struct._tcm_permit_request_t, align 8
  store ptr %0, ptr %4, align 8, !tbaa !9
  store i64 %1, ptr %5, align 8, !tbaa !47
  store ptr %2, ptr %6, align 8, !tbaa !81
  %9 = load ptr, ptr %4, align 8
  %10 = load ptr, ptr %6, align 8, !tbaa !81
  %11 = getelementptr inbounds nuw %"struct.tbb::detail::d1::constraints", ptr %10, i32 0, i32 2
  %12 = load i32, ptr %11, align 4, !tbaa !83
  %13 = icmp ne i32 %12, -1
  br i1 %13, label %24, label %14

14:                                               ; preds = %3
  %15 = load ptr, ptr %6, align 8, !tbaa !81
  %16 = getelementptr inbounds nuw %"struct.tbb::detail::d1::constraints", ptr %15, i32 0, i32 0
  %17 = load i32, ptr %16, align 4, !tbaa !85
  %18 = icmp ne i32 %17, -1
  br i1 %18, label %24, label %19

19:                                               ; preds = %14
  %20 = load ptr, ptr %6, align 8, !tbaa !81
  %21 = getelementptr inbounds nuw %"struct.tbb::detail::d1::constraints", ptr %20, i32 0, i32 3
  %22 = load i32, ptr %21, align 4, !tbaa !86
  %23 = icmp ne i32 %22, -1
  br i1 %23, label %24, label %52

24:                                               ; preds = %19, %14, %3
  %25 = load ptr, ptr %6, align 8, !tbaa !81
  %26 = getelementptr inbounds nuw %"struct.tbb::detail::d1::constraints", ptr %25, i32 0, i32 1
  %27 = load i32, ptr %26, align 4, !tbaa !87
  %28 = getelementptr inbounds nuw %"class.tbb::detail::r1::tcm_client", ptr %9, i32 0, i32 1
  %29 = getelementptr inbounds nuw %struct._tcm_cpu_constraints_t, ptr %28, i32 0, i32 1
  store i32 %27, ptr %29, align 4, !tbaa !88
  %30 = getelementptr inbounds nuw %"class.tbb::detail::r1::tcm_client", ptr %9, i32 0, i32 1
  %31 = getelementptr inbounds nuw %struct._tcm_cpu_constraints_t, ptr %30, i32 0, i32 0
  store i32 0, ptr %31, align 8, !tbaa !89
  %32 = load ptr, ptr %6, align 8, !tbaa !81
  %33 = getelementptr inbounds nuw %"struct.tbb::detail::d1::constraints", ptr %32, i32 0, i32 2
  %34 = load i32, ptr %33, align 4, !tbaa !83
  %35 = getelementptr inbounds nuw %"class.tbb::detail::r1::tcm_client", ptr %9, i32 0, i32 1
  %36 = getelementptr inbounds nuw %struct._tcm_cpu_constraints_t, ptr %35, i32 0, i32 4
  store i32 %34, ptr %36, align 4, !tbaa !90
  %37 = load ptr, ptr %6, align 8, !tbaa !81
  %38 = getelementptr inbounds nuw %"struct.tbb::detail::d1::constraints", ptr %37, i32 0, i32 0
  %39 = load i32, ptr %38, align 4, !tbaa !85
  %40 = getelementptr inbounds nuw %"class.tbb::detail::r1::tcm_client", ptr %9, i32 0, i32 1
  %41 = getelementptr inbounds nuw %struct._tcm_cpu_constraints_t, ptr %40, i32 0, i32 3
  store i32 %39, ptr %41, align 8, !tbaa !91
  %42 = load ptr, ptr %6, align 8, !tbaa !81
  %43 = getelementptr inbounds nuw %"struct.tbb::detail::d1::constraints", ptr %42, i32 0, i32 3
  %44 = load i32, ptr %43, align 4, !tbaa !86
  %45 = getelementptr inbounds nuw %"class.tbb::detail::r1::tcm_client", ptr %9, i32 0, i32 1
  %46 = getelementptr inbounds nuw %struct._tcm_cpu_constraints_t, ptr %45, i32 0, i32 5
  store i32 %44, ptr %46, align 8, !tbaa !92
  %47 = getelementptr inbounds nuw %"class.tbb::detail::r1::tcm_client", ptr %9, i32 0, i32 1
  %48 = getelementptr inbounds nuw %"class.tbb::detail::r1::tcm_client", ptr %9, i32 0, i32 2
  %49 = getelementptr inbounds nuw %struct._tcm_permit_request_t, ptr %48, i32 0, i32 2
  store ptr %47, ptr %49, align 8, !tbaa !93
  %50 = getelementptr inbounds nuw %"class.tbb::detail::r1::tcm_client", ptr %9, i32 0, i32 2
  %51 = getelementptr inbounds nuw %struct._tcm_permit_request_t, ptr %50, i32 0, i32 3
  store i32 1, ptr %51, align 8, !tbaa !94
  br label %52

52:                                               ; preds = %24, %19
  %53 = getelementptr inbounds nuw %"class.tbb::detail::r1::tcm_client", ptr %9, i32 0, i32 2
  %54 = getelementptr inbounds nuw %struct._tcm_permit_request_t, ptr %53, i32 0, i32 0
  store i32 0, ptr %54, align 8, !tbaa !95
  %55 = getelementptr inbounds nuw %"class.tbb::detail::r1::tcm_client", ptr %9, i32 0, i32 2
  %56 = getelementptr inbounds nuw %struct._tcm_permit_request_t, ptr %55, i32 0, i32 1
  store i32 0, ptr %56, align 4, !tbaa !96
  %57 = getelementptr inbounds nuw %"class.tbb::detail::r1::tcm_client", ptr %9, i32 0, i32 2
  %58 = getelementptr inbounds nuw %struct._tcm_permit_request_t, ptr %57, i32 0, i32 5
  %59 = load i32, ptr %58, align 8
  %60 = and i32 %59, -9
  %61 = or i32 %60, 8
  store i32 %61, ptr %58, align 8
  call void @llvm.lifetime.start.p0(i64 4, ptr %7) #3
  %62 = load ptr, ptr @_ZN3tbb6detail2r112_GLOBAL__N_118tcm_request_permitE, align 8, !tbaa !8
  %63 = load i64, ptr %5, align 8, !tbaa !47
  %64 = getelementptr inbounds nuw %"class.tbb::detail::r1::tcm_client", ptr %9, i32 0, i32 2
  call void @llvm.memcpy.p0.p0.i64(ptr align 8 %8, ptr align 8 %64, i64 32, i1 false), !tbaa.struct !97
  %65 = getelementptr inbounds nuw %"class.tbb::detail::r1::tcm_client", ptr %9, i32 0, i32 3
  %66 = call noundef i32 %62(i64 noundef %63, ptr noundef byval(%struct._tcm_permit_request_t) align 8 %8, ptr noundef %9, ptr noundef %65, ptr noundef null)
  store i32 %66, ptr %7, align 4, !tbaa !36
  %67 = getelementptr inbounds nuw %"class.tbb::detail::r1::tcm_client", ptr %9, i32 0, i32 2
  %68 = getelementptr inbounds nuw %struct._tcm_permit_request_t, ptr %67, i32 0, i32 5
  %69 = load i32, ptr %68, align 8
  %70 = and i32 %69, -9
  %71 = or i32 %70, 0
  store i32 %71, ptr %68, align 8
  call void @llvm.lifetime.end.p0(i64 4, ptr %7) #3
  ret void
}

; Function Attrs: mustprogress nounwind sspstrong uwtable
define linkonce_odr noundef ptr @_ZNKSt10unique_ptrIN3tbb6detail2r116tcm_adaptor_implENS2_21cache_aligned_deleterEEptEv(ptr noundef nonnull align 8 dereferenceable(8) %0) #5 comdat align 2 {
  %2 = alloca ptr, align 8
  store ptr %0, ptr %2, align 8, !tbaa !54
  %3 = load ptr, ptr %2, align 8
  %4 = call noundef ptr @_ZNKSt10unique_ptrIN3tbb6detail2r116tcm_adaptor_implENS2_21cache_aligned_deleterEE3getEv(ptr noundef nonnull align 8 dereferenceable(8) %3) #3
  ret ptr %4
}

; Function Attrs: mustprogress sspstrong uwtable
define void @_ZN3tbb6detail2r111tcm_adaptor15register_clientEPNS1_9pm_clientERNS0_2d111constraintsE(ptr noundef nonnull align 8 dereferenceable(24) %0, ptr noundef %1, ptr noundef nonnull align 4 dereferenceable(16) %2) unnamed_addr #4 align 2 {
  %4 = alloca ptr, align 8
  %5 = alloca ptr, align 8
  %6 = alloca ptr, align 8
  store ptr %0, ptr %4, align 8, !tbaa !44
  store ptr %1, ptr %5, align 8, !tbaa !79
  store ptr %2, ptr %6, align 8, !tbaa !81
  %7 = load ptr, ptr %4, align 8
  %8 = load ptr, ptr %5, align 8, !tbaa !79
  %9 = getelementptr inbounds nuw %"class.tbb::detail::r1::tcm_adaptor", ptr %7, i32 0, i32 1
  %10 = call noundef ptr @_ZNKSt10unique_ptrIN3tbb6detail2r116tcm_adaptor_implENS2_21cache_aligned_deleterEEptEv(ptr noundef nonnull align 8 dereferenceable(8) %9) #3
  %11 = getelementptr inbounds nuw %"struct.tbb::detail::r1::tcm_adaptor_impl", ptr %10, i32 0, i32 1
  %12 = load i64, ptr %11, align 8, !tbaa !62
  %13 = load ptr, ptr %6, align 8, !tbaa !81
  call void @_ZN3tbb6detail2r110tcm_client4initEmRNS0_2d111constraintsE(ptr noundef nonnull align 8 dereferenceable(112) %8, i64 noundef %12, ptr noundef nonnull align 4 dereferenceable(16) %13)
  ret void
}