; Function Attrs: mustprogress sspstrong uwtable
define void @_ZN3tbb6detail2r111tcm_adaptor15register_clientEPNS1_9pm_clientERNS0_2d111constraintsE(ptr noundef nonnull readonly align 8 captures(none) dereferenceable(24) %0, ptr noundef %1, ptr noundef nonnull readonly align 4 captures(none) dereferenceable(16) %2) unnamed_addr #3 align 2 {
  %4 = getelementptr inbounds nuw i8, ptr %0, i64 16
  %5 = load ptr, ptr %4, align 8, !tbaa !59
  %6 = getelementptr inbounds nuw i8, ptr %5, i64 8
  %7 = load i64, ptr %6, align 8, !tbaa !57
  %8 = getelementptr inbounds nuw i8, ptr %2, i64 8
  %9 = load i32, ptr %8, align 4, !tbaa !75
  %.not.i = icmp eq i32 %9, -1
  %10 = load i32, ptr %2, align 4
  %.not8.i = icmp eq i32 %10, -1
  %or.cond.i = select i1 %.not.i, i1 %.not8.i, i1 false
  %11 = getelementptr inbounds nuw i8, ptr %2, i64 12
  %12 = load i32, ptr %11, align 4
  %.not9.i = icmp eq i32 %12, -1
  %or.cond11.i = select i1 %or.cond.i, i1 %.not9.i, i1 false
  br i1 %or.cond11.i, label %_ZN3tbb6detail2r110tcm_client4initEmRNS0_2d111constraintsE.exit, label %13

13:                                               ; preds = %3
  %14 = getelementptr inbounds nuw i8, ptr %2, i64 4
  %15 = load i32, ptr %14, align 4, !tbaa !77
  %16 = getelementptr inbounds nuw i8, ptr %1, i64 24
  %17 = getelementptr inbounds nuw i8, ptr %1, i64 28
  store i32 %15, ptr %17, align 4, !tbaa !78
  store i32 0, ptr %16, align 8, !tbaa !79
  %18 = getelementptr inbounds nuw i8, ptr %1, i64 44
  store i32 %9, ptr %18, align 4, !tbaa !80
  %19 = getelementptr inbounds nuw i8, ptr %1, i64 40
  store i32 %10, ptr %19, align 8, !tbaa !81
  %20 = getelementptr inbounds nuw i8, ptr %1, i64 48
  store i32 %12, ptr %20, align 8, !tbaa !82
  %21 = getelementptr inbounds nuw i8, ptr %1, i64 64
  store ptr %16, ptr %21, align 8, !tbaa !83
  %22 = getelementptr inbounds nuw i8, ptr %1, i64 72
  store i32 1, ptr %22, align 8, !tbaa !84
  br label %_ZN3tbb6detail2r110tcm_client4initEmRNS0_2d111constraintsE.exit

_ZN3tbb6detail2r110tcm_client4initEmRNS0_2d111constraintsE.exit: ; preds = %3, %13
  %23 = getelementptr inbounds nuw i8, ptr %1, i64 56
  store i32 0, ptr %23, align 8, !tbaa !85
  %24 = getelementptr inbounds nuw i8, ptr %1, i64 60
  store i32 0, ptr %24, align 4, !tbaa !86
  %25 = getelementptr inbounds nuw i8, ptr %1, i64 80
  %26 = load i32, ptr %25, align 8
  %27 = or i32 %26, 8
  store i32 %27, ptr %25, align 8
  %28 = load ptr, ptr @_ZN3tbb6detail2r112_GLOBAL__N_118tcm_request_permitE, align 8, !tbaa !20
  %29 = getelementptr inbounds nuw i8, ptr %1, i64 88
  %30 = tail call noundef i32 %28(i64 noundef %7, ptr noundef nonnull byval(%struct._tcm_permit_request_t) align 8 %23, ptr noundef nonnull align 8 dereferenceable(112) %1, ptr noundef nonnull %29, ptr noundef null)
  %31 = load i32, ptr %25, align 8
  %32 = and i32 %31, -9
  store i32 %32, ptr %25, align 8
  ret void
}